target datalayout = "e-m:e-p270:32:32-p271:32:32-p272:64:64-i64:64-i128:128-f80:128-n8:16:32:64-S128"
target triple = "x86_64-unknown-linux-gnu"

%"class.node::AsyncWrap" = type { %"class.node::BaseObject", i32, i8, double, double }
%"class.node::BaseObject" = type { %"class.node::MemoryRetainer", %"class.v8::Global", ptr, ptr }
%"class.node::MemoryRetainer" = type { ptr }
%"class.v8::Global" = type { %"class.v8::PersistentBase" }
%"class.v8::PersistentBase" = type { %"class.v8::IndirectHandleBase" }
%"class.v8::IndirectHandleBase" = type { ptr }
%"class.node::StreamListener" = type { ptr, ptr, ptr }
%"class.node::http2::Http2Session" = type { %"class.node::AsyncWrap", %"class.node::StreamListener", %"class.node::mem::NgLibMemoryManager", %"struct.node::http2::Http2Session::Statistics", %"class.std::unique_ptr.7", %"class.node::AliasedStruct", i32, i32, i64, i64, i64, %"class.std::unordered_map", i32, i32, i32, %struct.uv_buf_t, %"class.v8::Global.15", %"class.std::unique_ptr.22", i64, ptr, i64, %"class.std::queue.30", i64, %"class.std::queue.37", %"class.std::vector.44", %"class.std::vector.46", i64, %"class.std::vector.51", i32, i32, %"class.node::BaseObjectPtrImpl.56" }
%"class.node::mem::NgLibMemoryManager" = type { %"struct.node::mem::NgLibMemoryManagerBase" }
%"struct.node::mem::NgLibMemoryManagerBase" = type { ptr }
%"struct.node::http2::Http2Session::Statistics" = type { i64, i64, i64, i64, i64, i32, i32, i32, i64, double, i32 }
%"class.std::unique_ptr.7" = type { %"struct.std::__uniq_ptr_data.8" }
%"struct.std::__uniq_ptr_data.8" = type { %"class.std::__uniq_ptr_impl.9" }
%"class.std::__uniq_ptr_impl.9" = type { %"class.std::tuple.10" }
%"class.std::tuple.10" = type { %"struct.std::_Tuple_impl.11" }
%"struct.std::_Tuple_impl.11" = type { %"struct.std::_Head_base.14" }
%"struct.std::_Head_base.14" = type { ptr }
%"class.node::AliasedStruct" = type { ptr, %"class.std::shared_ptr", ptr, %"class.v8::Global.15" }
%"class.std::shared_ptr" = type { %"class.std::__shared_ptr" }
%"class.std::__shared_ptr" = type { ptr, %"class.std::__shared_count" }
%"class.std::__shared_count" = type { ptr }
%"class.std::unordered_map" = type { %"class.std::_Hashtable" }
%"class.std::_Hashtable" = type { ptr, i64, %"struct.std::__detail::_Hash_node_base", i64, %"struct.std::__detail::_Prime_rehash_policy", ptr }
%"struct.std::__detail::_Hash_node_base" = type { ptr }
%"struct.std::__detail::_Prime_rehash_policy" = type { float, i64 }
%struct.uv_buf_t = type { ptr, i64 }
%"class.v8::Global.15" = type { %"class.v8::PersistentBase.16" }
%"class.v8::PersistentBase.16" = type { %"class.v8::IndirectHandleBase" }
%"class.std::unique_ptr.22" = type { %"struct.std::__uniq_ptr_data.23" }
%"struct.std::__uniq_ptr_data.23" = type { %"class.std::__uniq_ptr_impl.24" }
%"class.std::__uniq_ptr_impl.24" = type { %"class.std::tuple.25" }
%"class.std::tuple.25" = type { %"struct.std::_Tuple_impl.26" }
%"struct.std::_Tuple_impl.26" = type { %"struct.std::_Head_base.29" }
%"struct.std::_Head_base.29" = type { ptr }
%"class.std::queue.30" = type { %"class.std::deque.31" }
%"class.std::deque.31" = type { %"class.std::_Deque_base.32" }
%"class.std::_Deque_base.32" = type { %"struct.std::_Deque_base<node::BaseObjectPtrImpl<node::http2::Http2Ping, false>, std::allocator<node::BaseObjectPtrImpl<node::http2::Http2Ping, false>>>::_Deque_impl" }
%"struct.std::_Deque_base<node::BaseObjectPtrImpl<node::http2::Http2Ping, false>, std::allocator<node::BaseObjectPtrImpl<node::http2::Http2Ping, false>>>::_Deque_impl" = type { %"struct.std::_Deque_base<node::BaseObjectPtrImpl<node::http2::Http2Ping, false>, std::allocator<node::BaseObjectPtrImpl<node::http2::Http2Ping, false>>>::_Deque_impl_data" }
%"struct.std::_Deque_base<node::BaseObjectPtrImpl<node::http2::Http2Ping, false>, std::allocator<node::BaseObjectPtrImpl<node::http2::Http2Ping, false>>>::_Deque_impl_data" = type { ptr, i64, %"struct.std::_Deque_iterator.36", %"struct.std::_Deque_iterator.36" }
%"struct.std::_Deque_iterator.36" = type { ptr, ptr, ptr, ptr }
%"class.std::queue.37" = type { %"class.std::deque.38" }
%"class.std::deque.38" = type { %"class.std::_Deque_base.39" }
%"class.std::_Deque_base.39" = type { %"struct.std::_Deque_base<node::BaseObjectPtrImpl<node::http2::Http2Settings, false>, std::allocator<node::BaseObjectPtrImpl<node::http2::Http2Settings, false>>>::_Deque_impl" }
%"struct.std::_Deque_base<node::BaseObjectPtrImpl<node::http2::Http2Settings, false>, std::allocator<node::BaseObjectPtrImpl<node::http2::Http2Settings, false>>>::_Deque_impl" = type { %"struct.std::_Deque_base<node::BaseObjectPtrImpl<node::http2::Http2Settings, false>, std::allocator<node::BaseObjectPtrImpl<node::http2::Http2Settings, false>>>::_Deque_impl_data" }
%"struct.std::_Deque_base<node::BaseObjectPtrImpl<node::http2::Http2Settings, false>, std::allocator<node::BaseObjectPtrImpl<node::http2::Http2Settings, false>>>::_Deque_impl_data" = type { ptr, i64, %"struct.std::_Deque_iterator.43", %"struct.std::_Deque_iterator.43" }
%"struct.std::_Deque_iterator.43" = type { ptr, ptr, ptr, ptr }
%"class.std::vector.44" = type { %"struct.std::_Vector_base.45" }
%"struct.std::_Vector_base.45" = type { %"struct.std::_Vector_base<node::http2::NgHttp2StreamWrite, std::allocator<node::http2::NgHttp2StreamWrite>>::_Vector_impl" }
%"struct.std::_Vector_base<node::http2::NgHttp2StreamWrite, std::allocator<node::http2::NgHttp2StreamWrite>>::_Vector_impl" = type { %"struct.std::_Vector_base<node::http2::NgHttp2StreamWrite, std::allocator<node::http2::NgHttp2StreamWrite>>::_Vector_impl_data" }
%"struct.std::_Vector_base<node::http2::NgHttp2StreamWrite, std::allocator<node::http2::NgHttp2StreamWrite>>::_Vector_impl_data" = type { ptr, ptr, ptr }
%"class.std::vector.46" = type { %"struct.std::_Vector_base.47" }
%"struct.std::_Vector_base.47" = type { %"struct.std::_Vector_base<unsigned char, std::allocator<unsigned char>>::_Vector_impl" }
%"struct.std::_Vector_base<unsigned char, std::allocator<unsigned char>>::_Vector_impl" = type { %"struct.std::_Vector_base<unsigned char, std::allocator<unsigned char>>::_Vector_impl_data" }
%"struct.std::_Vector_base<unsigned char, std::allocator<unsigned char>>::_Vector_impl_data" = type { ptr, ptr, ptr }
%"class.std::vector.51" = type { %"struct.std::_Vector_base.52" }
%"struct.std::_Vector_base.52" = type { %"struct.std::_Vector_base<int, std::allocator<int>>::_Vector_impl" }
%"struct.std::_Vector_base<int, std::allocator<int>>::_Vector_impl" = type { %"struct.std::_Vector_base<int, std::allocator<int>>::_Vector_impl_data" }
%"struct.std::_Vector_base<int, std::allocator<int>>::_Vector_impl_data" = type { ptr, ptr, ptr }
%"class.node::BaseObjectPtrImpl.56" = type { %union.anon.57 }
%union.anon.57 = type { ptr }

; Function Attrs: mustprogress nounwind uwtable
define linkonce_odr dso_local noundef nonnull align 8 dereferenceable(8) ptr @_ZNSt10_Head_baseILm0EP15nghttp2_sessionLb0EE7_M_headERKS2_(ptr noundef nonnull align 8 dereferenceable(8) %__b) #4 comdat align 2 {
entry:
  %__b.addr = alloca ptr, align 8
  store ptr %__b, ptr %__b.addr, align 8
  %0 = load ptr, ptr %__b.addr, align 8
  %_M_head_impl = getelementptr inbounds %"struct.std::_Head_base.14", ptr %0, i32 0, i32 0
  ret ptr %_M_head_impl
}

; Function Attrs: mustprogress nounwind uwtable
define linkonce_odr dso_local noundef i64 @_ZNKSt15__new_allocatorINSt8__detail10_Hash_nodeISt4pairIKiN4node17BaseObjectPtrImplINS4_5http211Http2StreamELb0EEEELb0EEEE11_M_max_sizeEv(ptr noundef nonnull align 1 dereferenceable(1) %this) #4 comdat align 2 {
entry:
  %this.addr = alloca ptr, align 8
  store ptr %this, ptr %this.addr, align 8
  ret i64 384307168202282325
}

; Function Attrs: mustprogress nounwind uwtable
define linkonce_odr dso_local noundef nonnull align 8 dereferenceable(8) ptr @_ZNSt11_Tuple_implILm0EJP15nghttp2_sessionN4node5http214Nghttp2DeleterIS0_XadL_Z19nghttp2_session_delEEEEEE7_M_headERKS6_(ptr noundef nonnull align 8 dereferenceable(8) %__t) #4 comdat align 2 {
entry:
  %__t.addr = alloca ptr, align 8
  store ptr %__t, ptr %__t.addr, align 8
  %0 = load ptr, ptr %__t.addr, align 8
  %call = call noundef nonnull align 8 dereferenceable(8) ptr @_ZNSt10_Head_baseILm0EP15nghttp2_sessionLb0EE7_M_headERKS2_(ptr noundef nonnull align 8 dereferenceable(8) %0) #3
  ret ptr %call
}

; Function Attrs: mustprogress nounwind uwtable
define linkonce_odr dso_local noundef i64 @_ZNKSt15__new_allocatorINSt8__detail10_Hash_nodeISt4pairIKiN4node17BaseObjectPtrImplINS4_5http211Http2StreamELb0EEEELb0EEEE8max_sizeEv(ptr noundef nonnull align 1 dereferenceable(1) %this) #4 comdat align 2 {
entry:
  %this.addr = alloca ptr, align 8
  store ptr %this, ptr %this.addr, align 8
  %this1 = load ptr, ptr %this.addr, align 8
  %call = call noundef i64 @_ZNKSt15__new_allocatorINSt8__detail10_Hash_nodeISt4pairIKiN4node17BaseObjectPtrImplINS4_5http211Http2StreamELb0EEEELb0EEEE11_M_max_sizeEv(ptr noundef nonnull align 1 dereferenceable(1) %this1) #3
  ret i64 %call
}

; Function Attrs: mustprogress nounwind uwtable
define linkonce_odr dso_local noundef nonnull align 1 dereferenceable(1) ptr @_ZNKSt8__detail21_Hashtable_ebo_helperILi0ESaINS_10_Hash_nodeISt4pairIKiN4node17BaseObjectPtrImplINS4_5http211Http2StreamELb0EEEELb0EEEELb1EE7_M_cgetEv(ptr noundef nonnull align 1 dereferenceable(1) %this) #4 comdat align 2 {
entry:
  %this.addr = alloca ptr, align 8
  store ptr %this, ptr %this.addr, align 8
  %this1 = load ptr, ptr %this.addr, align 8
  ret ptr %this1
}

; Function Attrs: mustprogress nounwind uwtable
define linkonce_odr dso_local noundef nonnull align 8 dereferenceable(8) ptr @_ZSt12__get_helperILm0EP15nghttp2_sessionJN4node5http214Nghttp2DeleterIS0_XadL_Z19nghttp2_session_delEEEEEERKT0_RKSt11_Tuple_implIXT_EJS6_DpT1_EE(ptr noundef nonnull align 8 dereferenceable(8) %__t) #4 comdat {
entry:
  %__t.addr = alloca ptr, align 8
  store ptr %__t, ptr %__t.addr, align 8
  %0 = load ptr, ptr %__t.addr, align 8
  %call = call noundef nonnull align 8 dereferenceable(8) ptr @_ZNSt11_Tuple_implILm0EJP15nghttp2_sessionN4node5http214Nghttp2DeleterIS0_XadL_Z19nghttp2_session_delEEEEEE7_M_headERKS6_(ptr noundef nonnull align 8 dereferenceable(8) %0) #3
  ret ptr %call
}

; Function Attrs: mustprogress nounwind uwtable
define linkonce_odr dso_local noundef i64 @_ZNKSt6vectorIhSaIhEE4sizeEv(ptr noundef nonnull align 8 dereferenceable(24) %this) #4 comdat align 2 {
entry:
  %this.addr = alloca ptr, align 8
  store ptr %this, ptr %this.addr, align 8
  %this1 = load ptr, ptr %this.addr, align 8
  %_M_impl = getelementptr inbounds %"struct.std::_Vector_base.47", ptr %this1, i32 0, i32 0
  %_M_finish = getelementptr inbounds %"struct.std::_Vector_base<unsigned char, std::allocator<unsigned char>>::_Vector_impl_data", ptr %_M_impl, i32 0, i32 1
  %0 = load ptr, ptr %_M_finish, align 8
  %_M_impl2 = getelementptr inbounds %"struct.std::_Vector_base.47", ptr %this1, i32 0, i32 0
  %_M_start = getelementptr inbounds %"struct.std::_Vector_base<unsigned char, std::allocator<unsigned char>>::_Vector_impl_data", ptr %_M_impl2, i32 0, i32 0
  %1 = load ptr, ptr %_M_start, align 8
  %sub.ptr.lhs.cast = ptrtoint ptr %0 to i64
  %sub.ptr.rhs.cast = ptrtoint ptr %1 to i64
  %sub.ptr.sub = sub i64 %sub.ptr.lhs.cast, %sub.ptr.rhs.cast
  ret i64 %sub.ptr.sub
}

; Function Attrs: mustprogress nounwind uwtable
define linkonce_odr dso_local noundef i64 @_ZNSt16allocator_traitsISaINSt8__detail10_Hash_nodeISt4pairIKiN4node17BaseObjectPtrImplINS4_5http211Http2StreamELb0EEEELb0EEEEE8max_sizeERKSB_(ptr noundef nonnull align 1 dereferenceable(1) %__a) #4 comdat align 2 {
entry:
  %__a.addr = alloca ptr, align 8
  store ptr %__a, ptr %__a.addr, align 8
  %0 = load ptr, ptr %__a.addr, align 8
  %call = call noundef i64 @_ZNKSt15__new_allocatorINSt8__detail10_Hash_nodeISt4pairIKiN4node17BaseObjectPtrImplINS4_5http211Http2StreamELb0EEEELb0EEEE8max_sizeEv(ptr noundef nonnull align 1 dereferenceable(1) %0) #3
  ret i64 %call
}

; Function Attrs: mustprogress nounwind uwtable
define linkonce_odr dso_local noundef nonnull align 1 dereferenceable(1) ptr @_ZNKSt8__detail16_Hashtable_allocISaINS_10_Hash_nodeISt4pairIKiN4node17BaseObjectPtrImplINS4_5http211Http2StreamELb0EEEELb0EEEEE17_M_node_allocatorEv(ptr noundef nonnull align 1 dereferenceable(1) %this) #4 comdat align 2 {
entry:
  %this.addr = alloca ptr, align 8
  store ptr %this, ptr %this.addr, align 8
  %this1 = load ptr, ptr %this.addr, align 8
  %call = call noundef nonnull align 1 dereferenceable(1) ptr @_ZNKSt8__detail21_Hashtable_ebo_helperILi0ESaINS_10_Hash_nodeISt4pairIKiN4node17BaseObjectPtrImplINS4_5http211Http2StreamELb0EEEELb0EEEELb1EE7_M_cgetEv(ptr noundef nonnull align 1 dereferenceable(1) %this1)
  ret ptr %call
}

; Function Attrs: mustprogress nounwind uwtable
define linkonce_odr dso_local noundef nonnull align 8 dereferenceable(8) ptr @_ZSt3getILm0EJP15nghttp2_sessionN4node5http214Nghttp2DeleterIS0_XadL_Z19nghttp2_session_delEEEEEERKNSt13tuple_elementIXT_ESt5tupleIJDpT0_EEE4typeERKSA_(ptr noundef nonnull align 8 dereferenceable(8) %__t) #4 comdat {
entry:
  %__t.addr = alloca ptr, align 8
  store ptr %__t, ptr %__t.addr, align 8
  %0 = load ptr, ptr %__t.addr, align 8
  %call = call noundef nonnull align 8 dereferenceable(8) ptr @_ZSt12__get_helperILm0EP15nghttp2_sessionJN4node5http214Nghttp2DeleterIS0_XadL_Z19nghttp2_session_delEEEEEERKT0_RKSt11_Tuple_implIXT_EJS6_DpT1_EE(ptr noundef nonnull align 8 dereferenceable(8) %0) #3
  ret ptr %call
}

; Function Attrs: mustprogress nounwind uwtable
define linkonce_odr dso_local noundef i64 @_ZNK4node5http212Http2Session22current_session_memoryEv(ptr noundef nonnull align 8 dereferenceable(640) %this) #4 comdat align 2 {
entry:
  %this.addr = alloca ptr, align 8
  %total = alloca i64, align 8
  store ptr %this, ptr %this.addr, align 8
  %this1 = load ptr, ptr %this.addr, align 8
  %current_session_memory_ = getelementptr inbounds %"class.node::http2::Http2Session", ptr %this1, i32 0, i32 9
  %0 = load i64, ptr %current_session_memory_, align 8
  %add = add i64 %0, 640
  store i64 %add, ptr %total, align 8
  %current_nghttp2_memory_ = getelementptr inbounds %"class.node::http2::Http2Session", ptr %this1, i32 0, i32 10
  %1 = load i64, ptr %current_nghttp2_memory_, align 8
  %2 = load i64, ptr %total, align 8
  %add2 = add i64 %2, %1
  store i64 %add2, ptr %total, align 8
  %outgoing_storage_ = getelementptr inbounds %"class.node::http2::Http2Session", ptr %this1, i32 0, i32 25
  %call = call noundef i64 @_ZNKSt6vectorIhSaIhEE4sizeEv(ptr noundef nonnull align 8 dereferenceable(24) %outgoing_storage_) #3
  %3 = load i64, ptr %total, align 8
  %add3 = add i64 %3, %call
  store i64 %add3, ptr %total, align 8
  %4 = load i64, ptr %total, align 8
  ret i64 %4
}

; Function Attrs: mustprogress nounwind uwtable
define linkonce_odr dso_local noundef i64 @_ZNKSt10_HashtableIiSt4pairIKiN4node17BaseObjectPtrImplINS2_5http211Http2StreamELb0EEEESaIS7_ENSt8__detail10_Select1stESt8equal_toIiESt4hashIiENS9_18_Mod_range_hashingENS9_20_Default_ranged_hashENS9_20_Prime_rehash_policyENS9_17_Hashtable_traitsILb0ELb0ELb1EEEE4sizeEv(ptr noundef nonnull align 8 dereferenceable(56) %this) #4 comdat align 2 {
entry:
  %this.addr = alloca ptr, align 8
  store ptr %this, ptr %this.addr, align 8
  %this1 = load ptr, ptr %this.addr, align 8
  %_M_element_count = getelementptr inbounds %"class.std::_Hashtable", ptr %this1, i32 0, i32 3
  %0 = load i64, ptr %_M_element_count, align 8
  ret i64 %0
}

; Function Attrs: mustprogress nounwind uwtable
define linkonce_odr dso_local noundef i64 @_ZNKSt10_HashtableIiSt4pairIKiN4node17BaseObjectPtrImplINS2_5http211Http2StreamELb0EEEESaIS7_ENSt8__detail10_Select1stESt8equal_toIiESt4hashIiENS9_18_Mod_range_hashingENS9_20_Default_ranged_hashENS9_20_Prime_rehash_policyENS9_17_Hashtable_traitsILb0ELb0ELb1EEEE8max_sizeEv(ptr noundef nonnull align 8 dereferenceable(56) %this) #4 comdat align 2 {
entry:
  %this.addr = alloca ptr, align 8
  store ptr %this, ptr %this.addr, align 8
  %this1 = load ptr, ptr %this.addr, align 8
  %call = call noundef nonnull align 1 dereferenceable(1) ptr @_ZNKSt8__detail16_Hashtable_allocISaINS_10_Hash_nodeISt4pairIKiN4node17BaseObjectPtrImplINS4_5http211Http2StreamELb0EEEELb0EEEEE17_M_node_allocatorEv(ptr noundef nonnull align 1 dereferenceable(1) %this1)
  %call2 = call noundef i64 @_ZNSt16allocator_traitsISaINSt8__detail10_Hash_nodeISt4pairIKiN4node17BaseObjectPtrImplINS4_5http211Http2StreamELb0EEEELb0EEEEE8max_sizeERKSB_(ptr noundef nonnull align 1 dereferenceable(1) %call) #3
  ret i64 %call2
}

; Function Attrs: mustprogress nounwind uwtable
define linkonce_odr dso_local noundef ptr @_ZNKSt15__uniq_ptr_implI15nghttp2_sessionN4node5http214Nghttp2DeleterIS0_XadL_Z19nghttp2_session_delEEEEE6_M_ptrEv(ptr noundef nonnull align 8 dereferenceable(8) %this) #4 comdat align 2 {
entry:
  %this.addr = alloca ptr, align 8
  store ptr %this, ptr %this.addr, align 8
  %this1 = load ptr, ptr %this.addr, align 8
  %_M_t = getelementptr inbounds %"class.std::__uniq_ptr_impl.9", ptr %this1, i32 0, i32 0
  %call = call noundef nonnull align 8 dereferenceable(8) ptr @_ZSt3getILm0EJP15nghttp2_sessionN4node5http214Nghttp2DeleterIS0_XadL_Z19nghttp2_session_delEEEEEERKNSt13tuple_elementIXT_ESt5tupleIJDpT0_EEE4typeERKSA_(ptr noundef nonnull align 8 dereferenceable(8) %_M_t) #3
  %0 = load ptr, ptr %call, align 8
  ret ptr %0
}

; Function Attrs: mustprogress nounwind uwtable
define linkonce_odr dso_local noundef zeroext i1 @_ZNK4node5http212Http2Session28has_available_session_memoryEm(ptr noundef nonnull align 8 dereferenceable(640) %this, i64 noundef %amount) #4 comdat align 2 {
entry:
  %this.addr = alloca ptr, align 8
  %amount.addr = alloca i64, align 8
  store ptr %this, ptr %this.addr, align 8
  store i64 %amount, ptr %amount.addr, align 8
  %this1 = load ptr, ptr %this.addr, align 8
  %call = call noundef i64 @_ZNK4node5http212Http2Session22current_session_memoryEv(ptr noundef nonnull align 8 dereferenceable(640) %this1)
  %0 = load i64, ptr %amount.addr, align 8
  %add = add i64 %call, %0
  %max_session_memory_ = getelementptr inbounds %"class.node::http2::Http2Session", ptr %this1, i32 0, i32 8
  %1 = load i64, ptr %max_session_memory_, align 8
  %cmp = icmp ule i64 %add, %1
  ret i1 %cmp
}

; Function Attrs: mustprogress nounwind uwtable
define linkonce_odr dso_local noundef i64 @_ZNKSt13unordered_mapIiN4node17BaseObjectPtrImplINS0_5http211Http2StreamELb0EEESt4hashIiESt8equal_toIiESaISt4pairIKiS4_EEE4sizeEv(ptr noundef nonnull align 8 dereferenceable(56) %this) #4 comdat align 2 {
entry:
  %this.addr = alloca ptr, align 8
  store ptr %this, ptr %this.addr, align 8
  %this1 = load ptr, ptr %this.addr, align 8
  %_M_h = getelementptr inbounds %"class.std::unordered_map", ptr %this1, i32 0, i32 0
  %call = call noundef i64 @_ZNKSt10_HashtableIiSt4pairIKiN4node17BaseObjectPtrImplINS2_5http211Http2StreamELb0EEEESaIS7_ENSt8__detail10_Select1stESt8equal_toIiESt4hashIiENS9_18_Mod_range_hashingENS9_20_Default_ranged_hashENS9_20_Prime_rehash_policyENS9_17_Hashtable_traitsILb0ELb0ELb1EEEE4sizeEv(ptr noundef nonnull align 8 dereferenceable(56) %_M_h) #3
  ret i64 %call
}

; Function Attrs: mustprogress nounwind uwtable
define linkonce_odr dso_local noundef nonnull align 8 dereferenceable(8) ptr @_ZSt3minImERKT_S2_S2_(ptr noundef nonnull align 8 dereferenceable(8) %__a, ptr noundef nonnull align 8 dereferenceable(8) %__b) #4 comdat {
entry:
  %retval = alloca ptr, align 8
  %__a.addr = alloca ptr, align 8
  %__b.addr = alloca ptr, align 8
  store ptr %__a, ptr %__a.addr, align 8
  store ptr %__b, ptr %__b.addr, align 8
  %0 = load ptr, ptr %__b.addr, align 8
  %1 = load i64, ptr %0, align 8
  %2 = load ptr, ptr %__a.addr, align 8
  %3 = load i64, ptr %2, align 8
  %cmp = icmp ult i64 %1, %3
  br i1 %cmp, label %if.then, label %if.end

if.then:                                          ; preds = %entry
  %4 = load ptr, ptr %__b.addr, align 8
  store ptr %4, ptr %retval, align 8
  br label %return

if.end:                                           ; preds = %entry
  %5 = load ptr, ptr %__a.addr, align 8
  store ptr %5, ptr %retval, align 8
  br label %return

return:                                           ; preds = %if.end, %if.then
  %6 = load ptr, ptr %retval, align 8
  ret ptr %6
}

; Function Attrs: mustprogress nounwind uwtable
define linkonce_odr dso_local noundef i64 @_ZNKSt13unordered_mapIiN4node17BaseObjectPtrImplINS0_5http211Http2StreamELb0EEESt4hashIiESt8equal_toIiESaISt4pairIKiS4_EEE8max_sizeEv(ptr noundef nonnull align 8 dereferenceable(56) %this) #4 comdat align 2 {
entry:
  %this.addr = alloca ptr, align 8
  store ptr %this, ptr %this.addr, align 8
  %this1 = load ptr, ptr %this.addr, align 8
  %_M_h = getelementptr inbounds %"class.std::unordered_map", ptr %this1, i32 0, i32 0
  %call = call noundef i64 @_ZNKSt10_HashtableIiSt4pairIKiN4node17BaseObjectPtrImplINS2_5http211Http2StreamELb0EEEESaIS7_ENSt8__detail10_Select1stESt8equal_toIiESt4hashIiENS9_18_Mod_range_hashingENS9_20_Default_ranged_hashENS9_20_Prime_rehash_policyENS9_17_Hashtable_traitsILb0ELb0ELb1EEEE8max_sizeEv(ptr noundef nonnull align 8 dereferenceable(56) %_M_h) #3
  ret i64 %call
}

; Function Attrs: mustprogress nounwind uwtable
define linkonce_odr dso_local noundef ptr @_ZNKSt10unique_ptrI15nghttp2_sessionN4node5http214Nghttp2DeleterIS0_XadL_Z19nghttp2_session_delEEEEE3getEv(ptr noundef nonnull align 8 dereferenceable(8) %this) #4 comdat align 2 {
entry:
  %this.addr = alloca ptr, align 8
  store ptr %this, ptr %this.addr, align 8
  %this1 = load ptr, ptr %this.addr, align 8
  %_M_t = getelementptr inbounds %"class.std::unique_ptr.7", ptr %this1, i32 0, i32 0
  %call = call noundef ptr @_ZNKSt15__uniq_ptr_implI15nghttp2_sessionN4node5http214Nghttp2DeleterIS0_XadL_Z19nghttp2_session_delEEEEE6_M_ptrEv(ptr noundef nonnull align 8 dereferenceable(8) %_M_t) #3
  ret ptr %call
}

; Function Attrs: mustprogress nounwind uwtable
define dso_local noundef zeroext i1 @_ZN4node5http212Http2Session12CanAddStreamEv(ptr noundef nonnull align 8 dereferenceable(640) %this) #4 align 2 {
entry:
  %this.addr = alloca ptr, align 8
  %maxConcurrentStreams = alloca i32, align 4
  %maxSize = alloca i64, align 8
  %ref.tmp = alloca i64, align 8
  %ref.tmp4 = alloca i64, align 8
  store ptr %this, ptr %this.addr, align 8
  %this1 = load ptr, ptr %this.addr, align 8
  %session_ = getelementptr inbounds %"class.node::http2::Http2Session", ptr %this1, i32 0, i32 4
  %call = call noundef ptr @_ZNKSt10unique_ptrI15nghttp2_sessionN4node5http214Nghttp2DeleterIS0_XadL_Z19nghttp2_session_delEEEEE3getEv(ptr noundef nonnull align 8 dereferenceable(8) %session_) #3
  %call2 = call i32 @nghttp2_session_get_local_settings(ptr noundef %call, i32 noundef 3)
  store i32 %call2, ptr %maxConcurrentStreams, align 4
  %streams_ = getelementptr inbounds %"class.node::http2::Http2Session", ptr %this1, i32 0, i32 11
  %call3 = call noundef i64 @_ZNKSt13unordered_mapIiN4node17BaseObjectPtrImplINS0_5http211Http2StreamELb0EEESt4hashIiESt8equal_toIiESaISt4pairIKiS4_EEE8max_sizeEv(ptr noundef nonnull align 8 dereferenceable(56) %streams_) #3
  store i64 %call3, ptr %ref.tmp, align 8
  %0 = load i32, ptr %maxConcurrentStreams, align 4
  %conv = zext i32 %0 to i64
  store i64 %conv, ptr %ref.tmp4, align 8
  %call5 = call noundef nonnull align 8 dereferenceable(8) ptr @_ZSt3minImERKT_S2_S2_(ptr noundef nonnull align 8 dereferenceable(8) %ref.tmp, ptr noundef nonnull align 8 dereferenceable(8) %ref.tmp4)
  %1 = load i64, ptr %call5, align 8
  store i64 %1, ptr %maxSize, align 8
  %streams_6 = getelementptr inbounds %"class.node::http2::Http2Session", ptr %this1, i32 0, i32 11
  %call7 = call noundef i64 @_ZNKSt13unordered_mapIiN4node17BaseObjectPtrImplINS0_5http211Http2StreamELb0EEESt4hashIiESt8equal_toIiESaISt4pairIKiS4_EEE4sizeEv(ptr noundef nonnull align 8 dereferenceable(56) %streams_6) #3
  %2 = load i64, ptr %maxSize, align 8
  %cmp = icmp ult i64 %call7, %2
  br i1 %cmp, label %land.rhs, label %land.end

land.rhs:                                         ; preds = %entry
  %call8 = call noundef zeroext i1 @_ZNK4node5http212Http2Session28has_available_session_memoryEm(ptr noundef nonnull align 8 dereferenceable(640) %this1, i64 noundef 368)
  br label %land.end

land.end:                                         ; preds = %land.rhs, %entry
  %3 = phi i1 [ false, %entry ], [ %call8, %land.rhs ]
  ret i1 %3
}