; Function Attrs: mustprogress nounwind uwtable
define dso_local noundef zeroext i1 @_ZN4node5http212Http2Session12CanAddStreamEv(ptr nocapture noundef nonnull readonly align 8 dereferenceable(640) %this) local_unnamed_addr #4 align 2 {
entry:
  %session_ = getelementptr inbounds i8, ptr %this, i64 168
  %0 = load ptr, ptr %session_, align 8
  %call2 = tail call i32 @nghttp2_session_get_local_settings(ptr noundef %0, i32 noundef 3) #29
  %conv = zext i32 %call2 to i64
  %_M_element_count.i.i = getelementptr inbounds i8, ptr %this, i64 272
  %1 = load i64, ptr %_M_element_count.i.i, align 8
  %cmp = icmp ult i64 %1, %conv
  br i1 %cmp, label %land.rhs, label %land.end

land.rhs:                                         ; preds = %entry
  %current_session_memory_.i.i = getelementptr inbounds i8, ptr %this, i64 232
  %2 = load i64, ptr %current_session_memory_.i.i, align 8
  %current_nghttp2_memory_.i.i = getelementptr inbounds i8, ptr %this, i64 240
  %3 = load i64, ptr %current_nghttp2_memory_.i.i, align 8
  %outgoing_storage_.i.i = getelementptr inbounds i8, ptr %this, i64 568
  %_M_finish.i.i.i = getelementptr inbounds i8, ptr %this, i64 576
  %4 = load ptr, ptr %_M_finish.i.i.i, align 8
  %5 = load ptr, ptr %outgoing_storage_.i.i, align 8
  %sub.ptr.lhs.cast.i.i.i = ptrtoint ptr %4 to i64
  %sub.ptr.rhs.cast.i.i.i = ptrtoint ptr %5 to i64
  %add.i.i = add i64 %2, 1008
  %add2.i.i = add i64 %add.i.i, %3
  %add3.i.i = add i64 %add2.i.i, %sub.ptr.lhs.cast.i.i.i
  %add.i = sub i64 %add3.i.i, %sub.ptr.rhs.cast.i.i.i
  %max_session_memory_.i = getelementptr inbounds i8, ptr %this, i64 224
  %6 = load i64, ptr %max_session_memory_.i, align 8
  %cmp.i1 = icmp ule i64 %add.i, %6
  br label %land.end

land.end:                                         ; preds = %land.rhs, %entry
  %7 = phi i1 [ false, %entry ], [ %cmp.i1, %land.rhs ]
  ret i1 %7
}